target datalayout = "e-m:e-p270:32:32-p271:32:32-p272:64:64-i64:64-i128:128-f80:128-n8:16:32:64-S128"
target triple = "x86_64-pc-linux-gnu"

; Function Attrs: mustprogress uwtable
define internal noundef i32 @_ZL7cvRoundf(float noundef %0) #7 {
  %2 = alloca <4 x float>, align 16
  %3 = alloca float, align 4
  %4 = alloca <4 x float>, align 16
  %5 = alloca float, align 4
  %6 = alloca <4 x float>, align 16
  store float %0, ptr %5, align 4
  %7 = load float, ptr %5, align 4
  store float %7, ptr %3, align 4
  %8 = load float, ptr %3, align 4
  %9 = insertelement <4 x float> poison, float %8, i32 0
  %10 = insertelement <4 x float> %9, float 0.000000e+00, i32 1
  %11 = insertelement <4 x float> %10, float 0.000000e+00, i32 2
  %12 = insertelement <4 x float> %11, float 0.000000e+00, i32 3
  store <4 x float> %12, ptr %4, align 16
  %13 = load <4 x float>, ptr %4, align 16
  store <4 x float> %13, ptr %6, align 16
  %14 = load <4 x float>, ptr %6, align 16
  store <4 x float> %14, ptr %2, align 16
  %15 = load <4 x float>, ptr %2, align 16
  %16 = call noundef i32 @llvm.x86.sse.cvtss2si(<4 x float> %15)
  ret i32 %16
}

; Function Attrs: mustprogress uwtable
define internal noundef i32 @_ZN2cvL13saturate_castIiEET_f(float noundef %0) #0 {
  %2 = alloca float, align 4
  store float %0, ptr %2, align 4
  %3 = load float, ptr %2, align 4
  %4 = call noundef i32 @_ZL7cvRoundf(float noundef %3)
  ret i32 %4
}

; Function Attrs: mustprogress uwtable
define internal void @_ZN2cvL11randnScale_IifEEvPKfPT_iiPKT0_S7_b(ptr noundef %0, ptr noundef %1, i32 noundef %2, i32 noundef %3, ptr noundef %4, ptr noundef %5, i1 noundef zeroext %6) #0 {
  %8 = alloca ptr, align 8
  %9 = alloca ptr, align 8
  %10 = alloca i32, align 4
  %11 = alloca i32, align 4
  %12 = alloca ptr, align 8
  %13 = alloca ptr, align 8
  %14 = alloca i8, align 1
  %15 = alloca i32, align 4
  %16 = alloca i32, align 4
  %17 = alloca i32, align 4
  %18 = alloca float, align 4
  %19 = alloca float, align 4
  %20 = alloca float, align 4
  store ptr %0, ptr %8, align 8
  store ptr %1, ptr %9, align 8
  store i32 %2, ptr %10, align 4
  store i32 %3, ptr %11, align 4
  store ptr %4, ptr %12, align 8
  store ptr %5, ptr %13, align 8
  %21 = zext i1 %6 to i8
  store i8 %21, ptr %14, align 1
  %22 = load i8, ptr %14, align 1
  %23 = trunc i8 %22 to i1
  br i1 %23, label %105, label %24

24:                                               ; preds = %7
  %25 = load i32, ptr %11, align 4
  %26 = icmp eq i32 %25, 1
  br i1 %26, label %27, label %56

27:                                               ; preds = %24
  %28 = load ptr, ptr %12, align 8
  %29 = getelementptr inbounds float, ptr %28, i64 0
  %30 = load float, ptr %29, align 4
  store float %30, ptr %18, align 4
  %31 = load ptr, ptr %13, align 8
  %32 = getelementptr inbounds float, ptr %31, i64 0
  %33 = load float, ptr %32, align 4
  store float %33, ptr %19, align 4
  store i32 0, ptr %15, align 4
  br label %34

34:                                               ; preds = %52, %27
  %35 = load i32, ptr %15, align 4
  %36 = load i32, ptr %10, align 4
  %37 = icmp slt i32 %35, %36
  br i1 %37, label %38, label %55

38:                                               ; preds = %34
  %39 = load ptr, ptr %8, align 8
  %40 = load i32, ptr %15, align 4
  %41 = sext i32 %40 to i64
  %42 = getelementptr inbounds float, ptr %39, i64 %41
  %43 = load float, ptr %42, align 4
  %44 = load float, ptr %19, align 4
  %45 = load float, ptr %18, align 4
  %46 = call float @llvm.fmuladd.f32(float %43, float %44, float %45)
  %47 = call noundef i32 @_ZN2cvL13saturate_castIiEET_f(float noundef %46)
  %48 = load ptr, ptr %9, align 8
  %49 = load i32, ptr %15, align 4
  %50 = sext i32 %49 to i64
  %51 = getelementptr inbounds i32, ptr %48, i64 %50
  store i32 %47, ptr %51, align 4
  br label %52

52:                                               ; preds = %38
  %53 = load i32, ptr %15, align 4
  %54 = add nsw i32 %53, 1
  store i32 %54, ptr %15, align 4
  br label %34, !llvm.loop !108

55:                                               ; preds = %34
  br label %104

56:                                               ; preds = %24
  store i32 0, ptr %15, align 4
  br label %57

57:                                               ; preds = %92, %56
  %58 = load i32, ptr %15, align 4
  %59 = load i32, ptr %10, align 4
  %60 = icmp slt i32 %58, %59
  br i1 %60, label %61, label %103

61:                                               ; preds = %57
  store i32 0, ptr %17, align 4
  br label %62

62:                                               ; preds = %88, %61
  %63 = load i32, ptr %17, align 4
  %64 = load i32, ptr %11, align 4
  %65 = icmp slt i32 %63, %64
  br i1 %65, label %66, label %91

66:                                               ; preds = %62
  %67 = load ptr, ptr %8, align 8
  %68 = load i32, ptr %17, align 4
  %69 = sext i32 %68 to i64
  %70 = getelementptr inbounds float, ptr %67, i64 %69
  %71 = load float, ptr %70, align 4
  %72 = load ptr, ptr %13, align 8
  %73 = load i32, ptr %17, align 4
  %74 = sext i32 %73 to i64
  %75 = getelementptr inbounds float, ptr %72, i64 %74
  %76 = load float, ptr %75, align 4
  %77 = load ptr, ptr %12, align 8
  %78 = load i32, ptr %17, align 4
  %79 = sext i32 %78 to i64
  %80 = getelementptr inbounds float, ptr %77, i64 %79
  %81 = load float, ptr %80, align 4
  %82 = call float @llvm.fmuladd.f32(float %71, float %76, float %81)
  %83 = call noundef i32 @_ZN2cvL13saturate_castIiEET_f(float noundef %82)
  %84 = load ptr, ptr %9, align 8
  %85 = load i32, ptr %17, align 4
  %86 = sext i32 %85 to i64
  %87 = getelementptr inbounds i32, ptr %84, i64 %86
  store i32 %83, ptr %87, align 4
  br label %88

88:                                               ; preds = %66
  %89 = load i32, ptr %17, align 4
  %90 = add nsw i32 %89, 1
  store i32 %90, ptr %17, align 4
  br label %62, !llvm.loop !109

91:                                               ; preds = %62
  br label %92

92:                                               ; preds = %91
  %93 = load i32, ptr %15, align 4
  %94 = add nsw i32 %93, 1
  store i32 %94, ptr %15, align 4
  %95 = load i32, ptr %11, align 4
  %96 = load ptr, ptr %8, align 8
  %97 = sext i32 %95 to i64
  %98 = getelementptr inbounds float, ptr %96, i64 %97
  store ptr %98, ptr %8, align 8
  %99 = load i32, ptr %11, align 4
  %100 = load ptr, ptr %9, align 8
  %101 = sext i32 %99 to i64
  %102 = getelementptr inbounds i32, ptr %100, i64 %101
  store ptr %102, ptr %9, align 8
  br label %57, !llvm.loop !110

103:                                              ; preds = %57
  br label %104

104:                                              ; preds = %103, %55
  br label %168

105:                                              ; preds = %7
  store i32 0, ptr %15, align 4
  br label %106

106:                                              ; preds = %156, %105
  %107 = load i32, ptr %15, align 4
  %108 = load i32, ptr %10, align 4
  %109 = icmp slt i32 %107, %108
  br i1 %109, label %110, label %167

110:                                              ; preds = %106
  store i32 0, ptr %16, align 4
  br label %111

111:                                              ; preds = %152, %110
  %112 = load i32, ptr %16, align 4
  %113 = load i32, ptr %11, align 4
  %114 = icmp slt i32 %112, %113
  br i1 %114, label %115, label %155

115:                                              ; preds = %111
  %116 = load ptr, ptr %12, align 8
  %117 = load i32, ptr %16, align 4
  %118 = sext i32 %117 to i64
  %119 = getelementptr inbounds float, ptr %116, i64 %118
  %120 = load float, ptr %119, align 4
  store float %120, ptr %20, align 4
  store i32 0, ptr %17, align 4
  br label %121

121:                                              ; preds = %142, %115
  %122 = load i32, ptr %17, align 4
  %123 = load i32, ptr %11, align 4
  %124 = icmp slt i32 %122, %123
  br i1 %124, label %125, label %145

125:                                              ; preds = %121
  %126 = load ptr, ptr %8, align 8
  %127 = load i32, ptr %17, align 4
  %128 = sext i32 %127 to i64
  %129 = getelementptr inbounds float, ptr %126, i64 %128
  %130 = load float, ptr %129, align 4
  %131 = load ptr, ptr %13, align 8
  %132 = load i32, ptr %16, align 4
  %133 = load i32, ptr %11, align 4
  %134 = mul nsw i32 %132, %133
  %135 = load i32, ptr %17, align 4
  %136 = add nsw i32 %134, %135
  %137 = sext i32 %136 to i64
  %138 = getelementptr inbounds float, ptr %131, i64 %137
  %139 = load float, ptr %138, align 4
  %140 = load float, ptr %20, align 4
  %141 = call float @llvm.fmuladd.f32(float %130, float %139, float %140)
  store float %141, ptr %20, align 4
  br label %142

142:                                              ; preds = %125
  %143 = load i32, ptr %17, align 4
  %144 = add nsw i32 %143, 1
  store i32 %144, ptr %17, align 4
  br label %121, !llvm.loop !111

145:                                              ; preds = %121
  %146 = load float, ptr %20, align 4
  %147 = call noundef i32 @_ZN2cvL13saturate_castIiEET_f(float noundef %146)
  %148 = load ptr, ptr %9, align 8
  %149 = load i32, ptr %16, align 4
  %150 = sext i32 %149 to i64
  %151 = getelementptr inbounds i32, ptr %148, i64 %150
  store i32 %147, ptr %151, align 4
  br label %152

152:                                              ; preds = %145
  %153 = load i32, ptr %16, align 4
  %154 = add nsw i32 %153, 1
  store i32 %154, ptr %16, align 4
  br label %111, !llvm.loop !112

155:                                              ; preds = %111
  br label %156

156:                                              ; preds = %155
  %157 = load i32, ptr %15, align 4
  %158 = add nsw i32 %157, 1
  store i32 %158, ptr %15, align 4
  %159 = load i32, ptr %11, align 4
  %160 = load ptr, ptr %8, align 8
  %161 = sext i32 %159 to i64
  %162 = getelementptr inbounds float, ptr %160, i64 %161
  store ptr %162, ptr %8, align 8
  %163 = load i32, ptr %11, align 4
  %164 = load ptr, ptr %9, align 8
  %165 = sext i32 %163 to i64
  %166 = getelementptr inbounds i32, ptr %164, i64 %165
  store ptr %166, ptr %9, align 8
  br label %106, !llvm.loop !113

167:                                              ; preds = %106
  br label %168

168:                                              ; preds = %167, %104
  ret void
}

; Function Attrs: mustprogress uwtable
define internal void @_ZN2cvL14randnScale_32sEPKfPiiiS1_S1_b(ptr noundef %0, ptr noundef %1, i32 noundef %2, i32 noundef %3, ptr noundef %4, ptr noundef %5, i1 noundef zeroext %6) #0 {
  %8 = alloca ptr, align 8
  %9 = alloca ptr, align 8
  %10 = alloca i32, align 4
  %11 = alloca i32, align 4
  %12 = alloca ptr, align 8
  %13 = alloca ptr, align 8
  %14 = alloca i8, align 1
  store ptr %0, ptr %8, align 8
  store ptr %1, ptr %9, align 8
  store i32 %2, ptr %10, align 4
  store i32 %3, ptr %11, align 4
  store ptr %4, ptr %12, align 8
  store ptr %5, ptr %13, align 8
  %15 = zext i1 %6 to i8
  store i8 %15, ptr %14, align 1
  %16 = load ptr, ptr %8, align 8
  %17 = load ptr, ptr %9, align 8
  %18 = load i32, ptr %10, align 4
  %19 = load i32, ptr %11, align 4
  %20 = load ptr, ptr %12, align 8
  %21 = load ptr, ptr %13, align 8
  %22 = load i8, ptr %14, align 1
  %23 = trunc i8 %22 to i1
  call void @_ZN2cvL11randnScale_IifEEvPKfPT_iiPKT0_S7_b(ptr noundef %16, ptr noundef %17, i32 noundef %18, i32 noundef %19, ptr noundef %20, ptr noundef %21, i1 noundef zeroext %23)
  ret void
}