; Function Attrs: mustprogress nofree norecurse nosync nounwind memory(readwrite, inaccessiblemem: none) uwtable
define internal void @_ZN2cvL14randnScale_32sEPKfPiiiS1_S1_b(ptr nocapture noundef readonly %0, ptr nocapture noundef writeonly %1, i32 noundef %2, i32 noundef %3, ptr nocapture noundef readonly %4, ptr nocapture noundef readonly %5, i1 noundef zeroext %6) #10 {
  br i1 %6, label %.preheader65.i, label %26

.preheader65.i:                                   ; preds = %7
  %8 = icmp sgt i32 %2, 0
  br i1 %8, label %.preheader.lr.ph.i, label %_ZN2cvL11randnScale_IifEEvPKfPT_iiPKT0_S7_b.exit

.preheader.lr.ph.i:                               ; preds = %.preheader65.i
  %9 = icmp sgt i32 %3, 0
  %10 = sext i32 %3 to i64
  br i1 %9, label %.preheader.us.preheader.i, label %_ZN2cvL11randnScale_IifEEvPKfPT_iiPKT0_S7_b.exit

.preheader.us.preheader.i:                        ; preds = %.preheader.lr.ph.i
  %11 = zext nneg i32 %3 to i64
  br label %.preheader.us.i

.preheader.us.i:                                  ; preds = %._crit_edge80.split.us.us.i, %.preheader.us.preheader.i
  %.184.us.i = phi ptr [ %24, %._crit_edge80.split.us.us.i ], [ %0, %.preheader.us.preheader.i ]
  %.15783.us.i = phi ptr [ %25, %._crit_edge80.split.us.us.i ], [ %1, %.preheader.us.preheader.i ]
  %.282.us.i = phi i32 [ %23, %._crit_edge80.split.us.us.i ], [ 0, %.preheader.us.preheader.i ]
  br label %.lr.ph77.us.us.i

.lr.ph77.us.us.i:                                 ; preds = %._crit_edge.us81.us.i, %.preheader.us.i
  %indvars.iv101.i = phi i64 [ %indvars.iv.next102.i, %._crit_edge.us81.us.i ], [ 0, %.preheader.us.i ]
  %12 = getelementptr inbounds float, ptr %4, i64 %indvars.iv101.i
  %13 = load float, ptr %12, align 4
  %14 = mul nuw nsw i64 %indvars.iv101.i, %11
  %invariant.gep.i = getelementptr inbounds float, ptr %5, i64 %14
  br label %15

15:                                               ; preds = %15, %.lr.ph77.us.us.i
  %indvars.iv96.i = phi i64 [ %indvars.iv.next97.i, %15 ], [ 0, %.lr.ph77.us.us.i ]
  %.076.us.us.i = phi float [ %19, %15 ], [ %13, %.lr.ph77.us.us.i ]
  %16 = getelementptr inbounds float, ptr %.184.us.i, i64 %indvars.iv96.i
  %17 = load float, ptr %16, align 4
  %gep.i = getelementptr inbounds float, ptr %invariant.gep.i, i64 %indvars.iv96.i
  %18 = load float, ptr %gep.i, align 4
  %19 = tail call float @llvm.fmuladd.f32(float %17, float %18, float %.076.us.us.i)
  %indvars.iv.next97.i = add nuw nsw i64 %indvars.iv96.i, 1
  %exitcond100.not.i = icmp eq i64 %indvars.iv.next97.i, %11
  br i1 %exitcond100.not.i, label %._crit_edge.us81.us.i, label %15, !llvm.loop !126

._crit_edge.us81.us.i:                            ; preds = %15
  %20 = insertelement <4 x float> poison, float %19, i64 0
  %21 = tail call noundef i32 @llvm.x86.sse.cvtss2si(<4 x float> %20)
  %22 = getelementptr inbounds i32, ptr %.15783.us.i, i64 %indvars.iv101.i
  store i32 %21, ptr %22, align 4
  %indvars.iv.next102.i = add nuw nsw i64 %indvars.iv101.i, 1
  %exitcond105.not.i = icmp eq i64 %indvars.iv.next102.i, %11
  br i1 %exitcond105.not.i, label %._crit_edge80.split.us.us.i, label %.lr.ph77.us.us.i, !llvm.loop !127

._crit_edge80.split.us.us.i:                      ; preds = %._crit_edge.us81.us.i
  %23 = add nuw nsw i32 %.282.us.i, 1
  %24 = getelementptr inbounds float, ptr %.184.us.i, i64 %10
  %25 = getelementptr inbounds i32, ptr %.15783.us.i, i64 %10
  %exitcond106.not.i = icmp eq i32 %23, %2
  br i1 %exitcond106.not.i, label %_ZN2cvL11randnScale_IifEEvPKfPT_iiPKT0_S7_b.exit, label %.preheader.us.i, !llvm.loop !128

26:                                               ; preds = %7
  %27 = icmp eq i32 %3, 1
  br i1 %27, label %45, label %.preheader68.i

.preheader68.i:                                   ; preds = %26
  %28 = icmp sgt i32 %2, 0
  br i1 %28, label %.preheader67.lr.ph.i, label %_ZN2cvL11randnScale_IifEEvPKfPT_iiPKT0_S7_b.exit

.preheader67.lr.ph.i:                             ; preds = %.preheader68.i
  %29 = icmp sgt i32 %3, 0
  %30 = sext i32 %3 to i64
  br i1 %29, label %.preheader67.us.preheader.i, label %_ZN2cvL11randnScale_IifEEvPKfPT_iiPKT0_S7_b.exit

.preheader67.us.preheader.i:                      ; preds = %.preheader67.lr.ph.i
  %wide.trip.count.i = zext nneg i32 %3 to i64
  br label %.preheader67.us.i

.preheader67.us.i:                                ; preds = %._crit_edge.us.i, %.preheader67.us.preheader.i
  %.05573.us.i = phi ptr [ %43, %._crit_edge.us.i ], [ %0, %.preheader67.us.preheader.i ]
  %.05672.us.i = phi ptr [ %44, %._crit_edge.us.i ], [ %1, %.preheader67.us.preheader.i ]
  %.16271.us.i = phi i32 [ %42, %._crit_edge.us.i ], [ 0, %.preheader67.us.preheader.i ]
  br label %31

31:                                               ; preds = %31, %.preheader67.us.i
  %indvars.iv.i = phi i64 [ 0, %.preheader67.us.i ], [ %indvars.iv.next.i, %31 ]
  %32 = getelementptr inbounds float, ptr %.05573.us.i, i64 %indvars.iv.i
  %33 = load float, ptr %32, align 4
  %34 = getelementptr inbounds float, ptr %5, i64 %indvars.iv.i
  %35 = load float, ptr %34, align 4
  %36 = getelementptr inbounds float, ptr %4, i64 %indvars.iv.i
  %37 = load float, ptr %36, align 4
  %38 = tail call float @llvm.fmuladd.f32(float %33, float %35, float %37)
  %39 = insertelement <4 x float> poison, float %38, i64 0
  %40 = tail call noundef i32 @llvm.x86.sse.cvtss2si(<4 x float> %39)
  %41 = getelementptr inbounds i32, ptr %.05672.us.i, i64 %indvars.iv.i
  store i32 %40, ptr %41, align 4
  %indvars.iv.next.i = add nuw nsw i64 %indvars.iv.i, 1
  %exitcond.not.i = icmp eq i64 %indvars.iv.next.i, %wide.trip.count.i
  br i1 %exitcond.not.i, label %._crit_edge.us.i, label %31, !llvm.loop !129

._crit_edge.us.i:                                 ; preds = %31
  %42 = add nuw nsw i32 %.16271.us.i, 1
  %43 = getelementptr inbounds float, ptr %.05573.us.i, i64 %30
  %44 = getelementptr inbounds i32, ptr %.05672.us.i, i64 %30
  %exitcond90.not.i = icmp eq i32 %42, %2
  br i1 %exitcond90.not.i, label %_ZN2cvL11randnScale_IifEEvPKfPT_iiPKT0_S7_b.exit, label %.preheader67.us.i, !llvm.loop !130

45:                                               ; preds = %26
  %46 = load float, ptr %4, align 4
  %47 = load float, ptr %5, align 4
  %48 = icmp sgt i32 %2, 0
  br i1 %48, label %.lr.ph.preheader.i, label %_ZN2cvL11randnScale_IifEEvPKfPT_iiPKT0_S7_b.exit

.lr.ph.preheader.i:                               ; preds = %45
  %wide.trip.count94.i = zext nneg i32 %2 to i64
  br label %.lr.ph.i

.lr.ph.i:                                         ; preds = %.lr.ph.i, %.lr.ph.preheader.i
  %indvars.iv91.i = phi i64 [ 0, %.lr.ph.preheader.i ], [ %indvars.iv.next92.i, %.lr.ph.i ]
  %49 = getelementptr inbounds float, ptr %0, i64 %indvars.iv91.i
  %50 = load float, ptr %49, align 4
  %51 = tail call float @llvm.fmuladd.f32(float %50, float %47, float %46)
  %52 = insertelement <4 x float> poison, float %51, i64 0
  %53 = tail call noundef i32 @llvm.x86.sse.cvtss2si(<4 x float> %52)
  %54 = getelementptr inbounds i32, ptr %1, i64 %indvars.iv91.i
  store i32 %53, ptr %54, align 4
  %indvars.iv.next92.i = add nuw nsw i64 %indvars.iv91.i, 1
  %exitcond95.not.i = icmp eq i64 %indvars.iv.next92.i, %wide.trip.count94.i
  br i1 %exitcond95.not.i, label %_ZN2cvL11randnScale_IifEEvPKfPT_iiPKT0_S7_b.exit, label %.lr.ph.i, !llvm.loop !131

_ZN2cvL11randnScale_IifEEvPKfPT_iiPKT0_S7_b.exit: ; preds = %._crit_edge.us.i, %.lr.ph.i, %._crit_edge80.split.us.us.i, %.preheader65.i, %.preheader.lr.ph.i, %.preheader68.i, %.preheader67.lr.ph.i, %45
  ret void
}